; Function Attrs: nofree norecurse nosync nounwind memory(read, argmem: none, inaccessiblemem: none) uwtable
define dso_local noundef zeroext i1 @is_ident2(i32 noundef %0) local_unnamed_addr #3 {
.lr.ph.i.i.preheader:
  br label %.lr.ph.i.i

.lr.ph.i.i:                                       ; preds = %.lr.ph.i.i.preheader, %6
  %indvars.iv.i.i = phi i64 [ %indvars.iv.next.i.i, %6 ], [ 0, %.lr.ph.i.i.preheader ]
  %1 = phi i32 [ %8, %6 ], [ 95, %.lr.ph.i.i.preheader ]
  %.not14.i.i = icmp ugt i32 %1, %0
  br i1 %.not14.i.i, label %6, label %2

2:                                                ; preds = %.lr.ph.i.i
  %3 = or disjoint i64 %indvars.iv.i.i, 1
  %4 = getelementptr inbounds nuw i32, ptr @is_ident1.range, i64 %3
  %5 = load i32, ptr %4, align 4, !tbaa !15
  %.not15.i.i = icmp ugt i32 %0, %5
  br i1 %.not15.i.i, label %6, label %is_ident1.exit

6:                                                ; preds = %2, %.lr.ph.i.i
  %indvars.iv.next.i.i = add nuw nsw i64 %indvars.iv.i.i, 2
  %7 = getelementptr inbounds nuw i32, ptr @is_ident1.range, i64 %indvars.iv.next.i.i
  %8 = load i32, ptr %7, align 8, !tbaa !15
  %.not.not.i.i = icmp eq i32 %8, -1
  br i1 %.not.not.i.i, label %.lr.ph.i, label %.lr.ph.i.i, !llvm.loop !17

.lr.ph.i:                                         ; preds = %6, %14
  %indvars.iv.i = phi i64 [ %indvars.iv.next.i, %14 ], [ 0, %6 ]
  %9 = phi i32 [ %16, %14 ], [ 48, %6 ]
  %.not14.i = icmp ugt i32 %9, %0
  br i1 %.not14.i, label %14, label %10

10:                                               ; preds = %.lr.ph.i
  %11 = or disjoint i64 %indvars.iv.i, 1
  %12 = getelementptr inbounds nuw i32, ptr @is_ident2.range, i64 %11
  %13 = load i32, ptr %12, align 4, !tbaa !15
  %.not15.i = icmp ugt i32 %0, %13
  br i1 %.not15.i, label %14, label %is_ident1.exit

14:                                               ; preds = %10, %.lr.ph.i
  %indvars.iv.next.i = add nuw nsw i64 %indvars.iv.i, 2
  %15 = getelementptr inbounds nuw i32, ptr @is_ident2.range, i64 %indvars.iv.next.i
  %16 = load i32, ptr %15, align 8, !tbaa !15
  %.not.not.i = icmp eq i32 %16, -1
  br i1 %.not.not.i, label %is_ident1.exit, label %.lr.ph.i, !llvm.loop !17

is_ident1.exit:                                   ; preds = %2, %14, %10
  %17 = phi i1 [ false, %14 ], [ true, %10 ], [ true, %2 ]
  ret i1 %17
}